; ModuleID = '20/1213.c'
source_filename = "20/1213.c"
target datalayout = "e-m:e-p270:32:32-p271:32:32-p272:64:64-i64:64-f80:128-n8:16:32:64-S128"
target triple = "x86_64-pc-linux-gnu"

@.str = private unnamed_addr constant [5 x i8] c"%s%s\00", align 1

; Function Attrs: noinline nounwind uwtable
define dso_local i32 @max(i8* %0) #0 {
  %2 = alloca i8*, align 8
  %3 = alloca i32, align 4
  %4 = alloca i32, align 4
  store i8* %0, i8** %2, align 8
  store i32 0, i32* %4, align 4
  store i32 1, i32* %3, align 4
  br label %5

5:                                                ; preds = %31, %1
  %6 = load i8*, i8** %2, align 8
  %7 = load i32, i32* %3, align 4
  %8 = sext i32 %7 to i64
  %9 = getelementptr inbounds i8, i8* %6, i64 %8
  %10 = load i8, i8* %9, align 1
  %11 = sext i8 %10 to i32
  %12 = icmp ne i32 %11, 0
  br i1 %12, label %13, label %34

13:                                               ; preds = %5
  %14 = load i8*, i8** %2, align 8
  %15 = load i32, i32* %4, align 4
  %16 = sext i32 %15 to i64
  %17 = getelementptr inbounds i8, i8* %14, i64 %16
  %18 = load i8, i8* %17, align 1
  %19 = sext i8 %18 to i32
  %20 = load i8*, i8** %2, align 8
  %21 = load i32, i32* %3, align 4
  %22 = sext i32 %21 to i64
  %23 = getelementptr inbounds i8, i8* %20, i64 %22
  %24 = load i8, i8* %23, align 1
  %25 = sext i8 %24 to i32
  %26 = icmp slt i32 %19, %25
  br i1 %26, label %27, label %29

27:                                               ; preds = %13
  %28 = load i32, i32* %3, align 4
  store i32 %28, i32* %4, align 4
  br label %30

29:                                               ; preds = %13
  br label %31

30:                                               ; preds = %27
  br label %31

31:                                               ; preds = %30, %29
  %32 = load i32, i32* %3, align 4
  %33 = add nsw i32 %32, 1
  store i32 %33, i32* %3, align 4
  br label %5

34:                                               ; preds = %5
  %35 = load i32, i32* %4, align 4
  ret i32 %35
}

; Function Attrs: noinline nounwind uwtable
define dso_local void @cao(i8* %0, i8* %1) #0 {
  %3 = alloca i8*, align 8
  %4 = alloca i8*, align 8
  %5 = alloca i32, align 4
  %6 = alloca i32, align 4
  %7 = alloca [10 x i8], align 1
  store i8* %0, i8** %3, align 8
  store i8* %1, i8** %4, align 8
  store i32 0, i32* %6, align 4
  %8 = bitcast [10 x i8]* %7 to i8*
  call void @llvm.memset.p0i8.i64(i8* align 1 %8, i8 0, i64 10, i1 false)
  %9 = load i8*, i8** %3, align 8
  %10 = call i32 @max(i8* %9)
  %11 = add nsw i32 %10, 1
  store i32 %11, i32* %5, align 4
  br label %12

12:                                               ; preds = %35, %2
  %13 = load i8*, i8** %3, align 8
  %14 = load i32, i32* %5, align 4
  %15 = sext i32 %14 to i64
  %16 = getelementptr inbounds i8, i8* %13, i64 %15
  %17 = load i8, i8* %16, align 1
  %18 = sext i8 %17 to i32
  %19 = icmp ne i32 %18, 0
  br i1 %19, label %20, label %38

20:                                               ; preds = %12
  %21 = load i8*, i8** %3, align 8
  %22 = load i32, i32* %5, align 4
  %23 = sext i32 %22 to i64
  %24 = getelementptr inbounds i8, i8* %21, i64 %23
  %25 = load i8, i8* %24, align 1
  %26 = load i32, i32* %6, align 4
  %27 = sext i32 %26 to i64
  %28 = getelementptr inbounds [10 x i8], [10 x i8]* %7, i64 0, i64 %27
  store i8 %25, i8* %28, align 1
  %29 = load i32, i32* %6, align 4
  %30 = add nsw i32 %29, 1
  store i32 %30, i32* %6, align 4
  %31 = load i8*, i8** %3, align 8
  %32 = load i32, i32* %5, align 4
  %33 = sext i32 %32 to i64
  %34 = getelementptr inbounds i8, i8* %31, i64 %33
  store i8 0, i8* %34, align 1
  br label %35

35:                                               ; preds = %20
  %36 = load i32, i32* %5, align 4
  %37 = add nsw i32 %36, 1
  store i32 %37, i32* %5, align 4
  br label %12

38:                                               ; preds = %12
  %39 = load i8*, i8** %3, align 8
  %40 = load i8*, i8** %4, align 8
  %41 = call i8* @strcat(i8* %39, i8* %40) #4
  %42 = load i8*, i8** %3, align 8
  %43 = getelementptr inbounds [10 x i8], [10 x i8]* %7, i64 0, i64 0
  %44 = call i8* @strcat(i8* %42, i8* %43) #4
  ret void
}

; Function Attrs: argmemonly nounwind willreturn
declare void @llvm.memset.p0i8.i64(i8* nocapture writeonly, i8, i64, i1 immarg) #1

; Function Attrs: nounwind
declare dso_local i8* @strcat(i8*, i8*) #2

; Function Attrs: noinline nounwind uwtable
define dso_local i32 @main() #0 {
  %1 = alloca i32, align 4
  %2 = alloca [12 x i8], align 1
  %3 = alloca [4 x i8], align 1
  %4 = alloca i32, align 4
  store i32 0, i32* %1, align 4
  %5 = bitcast [12 x i8]* %2 to i8*
  call void @llvm.memset.p0i8.i64(i8* align 1 %5, i8 0, i64 12, i1 false)
  %6 = bitcast [4 x i8]* %3 to i8*
  call void @llvm.memset.p0i8.i64(i8* align 1 %6, i8 0, i64 4, i1 false)
  br label %7

7:                                                ; preds = %38, %0
  %8 = getelementptr inbounds [12 x i8], [12 x i8]* %2, i64 0, i64 0
  %9 = getelementptr inbounds [4 x i8], [4 x i8]* %3, i64 0, i64 0
  %10 = call i32 (i8*, ...) @__isoc99_scanf(i8* getelementptr inbounds ([5 x i8], [5 x i8]* @.str, i64 0, i64 0), i8* %8, i8* %9)
  %11 = icmp ne i32 %10, -1
  br i1 %11, label %12, label %39

12:                                               ; preds = %7
  %13 = getelementptr inbounds [12 x i8], [12 x i8]* %2, i64 0, i64 0
  %14 = getelementptr inbounds [4 x i8], [4 x i8]* %3, i64 0, i64 0
  call void @cao(i8* %13, i8* %14)
  %15 = getelementptr inbounds [12 x i8], [12 x i8]* %2, i64 0, i64 0
  %16 = call i32 @puts(i8* %15)
  store i32 0, i32* %4, align 4
  br label %17

17:                                               ; preds = %24, %12
  %18 = load i32, i32* %4, align 4
  %19 = icmp slt i32 %18, 12
  br i1 %19, label %20, label %27

20:                                               ; preds = %17
  %21 = load i32, i32* %4, align 4
  %22 = sext i32 %21 to i64
  %23 = getelementptr inbounds [12 x i8], [12 x i8]* %2, i64 0, i64 %22
  store i8 0, i8* %23, align 1
  br label %24

24:                                               ; preds = %20
  %25 = load i32, i32* %4, align 4
  %26 = add nsw i32 %25, 1
  store i32 %26, i32* %4, align 4
  br label %17

27:                                               ; preds = %17
  store i32 0, i32* %4, align 4
  br label %28

28:                                               ; preds = %35, %27
  %29 = load i32, i32* %4, align 4
  %30 = icmp slt i32 %29, 4
  br i1 %30, label %31, label %38

31:                                               ; preds = %28
  %32 = load i32, i32* %4, align 4
  %33 = sext i32 %32 to i64
  %34 = getelementptr inbounds [4 x i8], [4 x i8]* %3, i64 0, i64 %33
  store i8 0, i8* %34, align 1
  br label %35

35:                                               ; preds = %31
  %36 = load i32, i32* %4, align 4
  %37 = add nsw i32 %36, 1
  store i32 %37, i32* %4, align 4
  br label %28

38:                                               ; preds = %28
  br label %7

39:                                               ; preds = %7
  %40 = load i32, i32* %1, align 4
  ret i32 %40
}

declare dso_local i32 @__isoc99_scanf(i8*, ...) #3

declare dso_local i32 @puts(i8*) #3


!llvm.module.flags = !{!0}
!llvm.ident = !{!1}

!0 = !{i32 1, !"wchar_size", i32 4}
!1 = !{!"clang version 10.0.0-4ubuntu1 "}
